target datalayout = "e-m:e-p270:32:32-p271:32:32-p272:64:64-i64:64-i128:128-f80:128-n8:16:32:64-S128"
target triple = "x86_64-pc-linux-gnu"

; Function Attrs: nounwind uwtable
define dso_local i32 @zend_binary_strcasecmp(ptr noundef %0, i64 noundef %1, ptr noundef %2, i64 noundef %3) #0 {
  %5 = alloca i32, align 4
  %6 = alloca ptr, align 8
  %7 = alloca i64, align 8
  %8 = alloca ptr, align 8
  %9 = alloca i64, align 8
  %10 = alloca i64, align 8
  %11 = alloca i32, align 4
  %12 = alloca i32, align 4
  %13 = alloca i32, align 4
  store ptr %0, ptr %6, align 8, !tbaa !4
  store i64 %1, ptr %7, align 8, !tbaa !9
  store ptr %2, ptr %8, align 8, !tbaa !4
  store i64 %3, ptr %9, align 8, !tbaa !9
  call void @llvm.lifetime.start.p0(i64 8, ptr %10) #20
  call void @llvm.lifetime.start.p0(i64 4, ptr %11) #20
  call void @llvm.lifetime.start.p0(i64 4, ptr %12) #20
  %14 = load ptr, ptr %6, align 8, !tbaa !4
  %15 = load ptr, ptr %8, align 8, !tbaa !4
  %16 = icmp eq ptr %14, %15
  br i1 %16, label %17, label %18

17:                                               ; preds = %4
  store i32 0, ptr %5, align 4
  store i32 1, ptr %13, align 4
  br label %67

18:                                               ; preds = %4
  %19 = load i64, ptr %7, align 8, !tbaa !9
  %20 = load i64, ptr %9, align 8, !tbaa !9
  %21 = icmp ult i64 %19, %20
  br i1 %21, label %22, label %24

22:                                               ; preds = %18
  %23 = load i64, ptr %7, align 8, !tbaa !9
  br label %26

24:                                               ; preds = %18
  %25 = load i64, ptr %9, align 8, !tbaa !9
  br label %26

26:                                               ; preds = %24, %22
  %27 = phi i64 [ %23, %22 ], [ %25, %24 ]
  store i64 %27, ptr %10, align 8, !tbaa !9
  br label %28

28:                                               ; preds = %54, %26
  %29 = load i64, ptr %10, align 8, !tbaa !9
  %30 = add i64 %29, -1
  store i64 %30, ptr %10, align 8, !tbaa !9
  %31 = icmp ne i64 %29, 0
  br i1 %31, label %32, label %55

32:                                               ; preds = %28
  %33 = load ptr, ptr %6, align 8, !tbaa !4
  %34 = getelementptr inbounds nuw i8, ptr %33, i32 1
  store ptr %34, ptr %6, align 8, !tbaa !4
  %35 = load i8, ptr %33, align 1, !tbaa !11
  %36 = zext i8 %35 to i64
  %37 = getelementptr inbounds nuw [256 x i8], ptr @zend_tolower_map, i64 0, i64 %36
  %38 = load i8, ptr %37, align 1, !tbaa !11
  %39 = zext i8 %38 to i32
  store i32 %39, ptr %11, align 4, !tbaa !44
  %40 = load ptr, ptr %8, align 8, !tbaa !4
  %41 = getelementptr inbounds nuw i8, ptr %40, i32 1
  store ptr %41, ptr %8, align 8, !tbaa !4
  %42 = load i8, ptr %40, align 1, !tbaa !11
  %43 = zext i8 %42 to i64
  %44 = getelementptr inbounds nuw [256 x i8], ptr @zend_tolower_map, i64 0, i64 %43
  %45 = load i8, ptr %44, align 1, !tbaa !11
  %46 = zext i8 %45 to i32
  store i32 %46, ptr %12, align 4, !tbaa !44
  %47 = load i32, ptr %11, align 4, !tbaa !44
  %48 = load i32, ptr %12, align 4, !tbaa !44
  %49 = icmp ne i32 %47, %48
  br i1 %49, label %50, label %54

50:                                               ; preds = %32
  %51 = load i32, ptr %11, align 4, !tbaa !44
  %52 = load i32, ptr %12, align 4, !tbaa !44
  %53 = sub nsw i32 %51, %52
  store i32 %53, ptr %5, align 4
  store i32 1, ptr %13, align 4
  br label %67

54:                                               ; preds = %32
  br label %28

55:                                               ; preds = %28
  %56 = load i64, ptr %7, align 8, !tbaa !9
  %57 = load i64, ptr %9, align 8, !tbaa !9
  %58 = icmp eq i64 %56, %57
  br i1 %58, label %59, label %60

59:                                               ; preds = %55
  br label %65

60:                                               ; preds = %55
  %61 = load i64, ptr %7, align 8, !tbaa !9
  %62 = load i64, ptr %9, align 8, !tbaa !9
  %63 = icmp ult i64 %61, %62
  %64 = select i1 %63, i32 -1, i32 1
  br label %65

65:                                               ; preds = %60, %59
  %66 = phi i32 [ 0, %59 ], [ %64, %60 ]
  store i32 %66, ptr %5, align 4
  store i32 1, ptr %13, align 4
  br label %67

67:                                               ; preds = %65, %50, %17
  call void @llvm.lifetime.end.p0(i64 4, ptr %12) #20
  call void @llvm.lifetime.end.p0(i64 4, ptr %11) #20
  call void @llvm.lifetime.end.p0(i64 8, ptr %10) #20
  %68 = load i32, ptr %5, align 4
  ret i32 %68
}