; Function Attrs: nofree norecurse nosync nounwind memory(argmem: read) uwtable
define dso_local range(i32 -255, 256) i32 @zend_binary_strcasecmp(ptr noundef readonly captures(address) %0, i64 noundef %1, ptr noundef readonly captures(address) %2, i64 noundef %3) local_unnamed_addr #9 {
  %5 = icmp eq ptr %0, %2
  br i1 %5, label %27, label %6

6:                                                ; preds = %4
  %7 = tail call i64 @llvm.umin.i64(i64 %1, i64 %3)
  br label %8

8:                                                ; preds = %9, %6
  %.019 = phi ptr [ %2, %6 ], [ %16, %9 ]
  %.018 = phi i64 [ %7, %6 ], [ %10, %9 ]
  %.017 = phi ptr [ %0, %6 ], [ %11, %9 ]
  %.not = icmp eq i64 %.018, 0
  br i1 %.not, label %25, label %9

9:                                                ; preds = %8
  %10 = add i64 %.018, -1
  %11 = getelementptr inbounds nuw i8, ptr %.017, i64 1
  %12 = load i8, ptr %.017, align 1, !tbaa !4
  %13 = zext i8 %12 to i64
  %14 = getelementptr inbounds nuw [256 x i8], ptr @zend_tolower_map, i64 0, i64 %13
  %15 = load i8, ptr %14, align 1, !tbaa !4
  %16 = getelementptr inbounds nuw i8, ptr %.019, i64 1
  %17 = load i8, ptr %.019, align 1, !tbaa !4
  %18 = zext i8 %17 to i64
  %19 = getelementptr inbounds nuw [256 x i8], ptr @zend_tolower_map, i64 0, i64 %18
  %20 = load i8, ptr %19, align 1, !tbaa !4
  %.not24 = icmp eq i8 %15, %20
  br i1 %.not24, label %8, label %21

21:                                               ; preds = %9
  %22 = zext i8 %20 to i32
  %23 = zext i8 %15 to i32
  %24 = sub nsw i32 %23, %22
  br label %27

25:                                               ; preds = %8
  %26 = tail call i32 @llvm.ucmp.i32.i64(i64 %1, i64 %3)
  br label %27

27:                                               ; preds = %4, %25, %21
  %.0 = phi i32 [ %24, %21 ], [ %26, %25 ], [ 0, %4 ]
  ret i32 %.0
}